; Function Attrs: mustprogress uwtable
define hidden void @_ZNK2cv6xphoto23grayDctDenoisingInvokerclERKNS_5RangeE(ptr nocapture noundef nonnull readonly align 8 dereferenceable(48) %0, ptr nocapture noundef nonnull readonly align 4 dereferenceable(8) %1) unnamed_addr #4 align 2 personality ptr @__gxx_personality_v0 {
  %3 = alloca %"class.cv::Rect_", align 4
  %4 = alloca %"class.cv::Mat", align 8
  %5 = alloca %"class.cv::Mat", align 8
  %6 = alloca %"class.cv::_OutputArray", align 8
  %7 = alloca %"class.cv::_InputArray", align 8
  %8 = alloca %"class.cv::_OutputArray", align 8
  %9 = alloca %"class.cv::_InputArray", align 8
  %10 = alloca %"class.cv::_OutputArray", align 8
  %11 = load i32, ptr %1, align 4
  %12 = getelementptr inbounds i8, ptr %1, i64 4
  %13 = load i32, ptr %12, align 4
  %.not.not30 = icmp slt i32 %11, %13
  br i1 %.not.not30, label %.lr.ph33, label %._crit_edge34

.lr.ph33:                                         ; preds = %2
  %14 = getelementptr inbounds i8, ptr %0, i64 8
  %15 = getelementptr inbounds i8, ptr %0, i64 24
  %16 = getelementptr inbounds i8, ptr %3, i64 4
  %17 = getelementptr inbounds i8, ptr %3, i64 8
  %18 = getelementptr inbounds i8, ptr %3, i64 12
  %19 = getelementptr inbounds i8, ptr %6, i64 8
  %20 = getelementptr inbounds i8, ptr %6, i64 16
  %21 = getelementptr inbounds i8, ptr %7, i64 16
  %22 = getelementptr inbounds i8, ptr %7, i64 20
  %23 = getelementptr inbounds i8, ptr %7, i64 8
  %24 = getelementptr inbounds i8, ptr %8, i64 8
  %25 = getelementptr inbounds i8, ptr %8, i64 16
  %26 = getelementptr inbounds i8, ptr %4, i64 16
  %27 = getelementptr inbounds i8, ptr %0, i64 40
  %28 = getelementptr inbounds i8, ptr %9, i64 16
  %29 = getelementptr inbounds i8, ptr %9, i64 20
  %30 = getelementptr inbounds i8, ptr %9, i64 8
  %31 = getelementptr inbounds i8, ptr %0, i64 16
  %32 = getelementptr inbounds i8, ptr %10, i64 8
  %33 = getelementptr inbounds i8, ptr %10, i64 16
  %34 = sext i32 %11 to i64
  br label %35

35:                                               ; preds = %.lr.ph33, %71
  %indvars.iv36 = phi i64 [ %34, %.lr.ph33 ], [ %indvars.iv.next37, %71 ]
  %36 = load ptr, ptr %14, align 8
  %37 = getelementptr inbounds i8, ptr %36, i64 12
  %38 = load i32, ptr %37, align 4
  %39 = load i32, ptr %15, align 8
  %40 = sub nsw i32 %38, %39
  %41 = trunc nsw i64 %indvars.iv36 to i32
  %42 = sdiv i32 %41, %40
  %43 = srem i32 %41, %40
  store i32 %43, ptr %3, align 4
  store i32 %42, ptr %16, align 4
  store i32 %39, ptr %17, align 4
  store i32 %39, ptr %18, align 4
  call void @_ZN2cv3MatC1Eiii(ptr noundef nonnull align 8 dereferenceable(96) %4, i32 noundef %39, i32 noundef %39, i32 noundef 5)
  %44 = load ptr, ptr %14, align 8
  invoke void @_ZN2cv3MatC1ERKS0_RKNS_5Rect_IiEE(ptr noundef nonnull align 8 dereferenceable(96) %5, ptr noundef nonnull align 8 dereferenceable(96) %44, ptr noundef nonnull align 4 dereferenceable(16) %3)
          to label %45 unwind label %62

45:                                               ; preds = %35
  store i64 0, ptr %20, align 8
  store i32 33619968, ptr %6, align 8
  store ptr %4, ptr %19, align 8
  invoke void @_ZNK2cv3Mat6copyToERKNS_12_OutputArrayE(ptr noundef nonnull align 8 dereferenceable(96) %5, ptr noundef nonnull align 8 dereferenceable(24) %6)
          to label %46 unwind label %64

46:                                               ; preds = %45
  call void @_ZN2cv3MatD1Ev(ptr noundef nonnull align 8 dereferenceable(96) %5) #14
  store i32 0, ptr %21, align 8
  store i32 0, ptr %22, align 4
  store i32 16842752, ptr %7, align 8
  store ptr %4, ptr %23, align 8
  store i64 0, ptr %25, align 8
  store i32 33619968, ptr %8, align 8
  store ptr %4, ptr %24, align 8
  invoke void @_ZN2cv3dctERKNS_11_InputArrayERKNS_12_OutputArrayEi(ptr noundef nonnull align 8 dereferenceable(24) %7, ptr noundef nonnull align 8 dereferenceable(24) %8, i32 noundef 0)
          to label %47 unwind label %66

47:                                               ; preds = %46
  %48 = load ptr, ptr %26, align 8
  %49 = load i32, ptr %15, align 8
  %.not = icmp eq i32 %49, 0
  br i1 %.not, label %._crit_edge, label %.lr.ph

.lr.ph:                                           ; preds = %47, %.lr.ph
  %indvars.iv = phi i64 [ %indvars.iv.next, %.lr.ph ], [ 0, %47 ]
  %50 = getelementptr inbounds float, ptr %48, i64 %indvars.iv
  %51 = load float, ptr %50, align 4
  %52 = call float @llvm.fabs.f32(float %51)
  %53 = fpext float %52 to double
  %54 = load double, ptr %27, align 8
  %55 = fcmp olt double %54, %53
  %56 = uitofp i1 %55 to float
  %57 = fmul float %51, %56
  store float %57, ptr %50, align 4
  %indvars.iv.next = add nuw nsw i64 %indvars.iv, 1
  %58 = load i32, ptr %15, align 8
  %59 = mul nsw i32 %58, %58
  %60 = zext nneg i32 %59 to i64
  %61 = icmp ult i64 %indvars.iv.next, %60
  br i1 %61, label %.lr.ph, label %._crit_edge, !llvm.loop !4

62:                                               ; preds = %35
  %63 = landingpad { ptr, i32 }
          cleanup
  br label %76

64:                                               ; preds = %45
  %65 = landingpad { ptr, i32 }
          cleanup
  call void @_ZN2cv3MatD1Ev(ptr noundef nonnull align 8 dereferenceable(96) %5) #14
  br label %76

66:                                               ; preds = %46
  %67 = landingpad { ptr, i32 }
          cleanup
  br label %76

._crit_edge:                                      ; preds = %.lr.ph, %47
  store i32 0, ptr %28, align 8
  store i32 0, ptr %29, align 4
  store i32 16842752, ptr %9, align 8
  store ptr %4, ptr %30, align 8
  %68 = load ptr, ptr %31, align 8
  %69 = load ptr, ptr %68, align 8
  %70 = getelementptr inbounds %"class.cv::Mat", ptr %69, i64 %indvars.iv36
  store i64 0, ptr %33, align 8
  store i32 33619968, ptr %10, align 8
  store ptr %70, ptr %32, align 8
  invoke void @_ZN2cv4idctERKNS_11_InputArrayERKNS_12_OutputArrayEi(ptr noundef nonnull align 8 dereferenceable(24) %9, ptr noundef nonnull align 8 dereferenceable(24) %10, i32 noundef 0)
          to label %71 unwind label %74

71:                                               ; preds = %._crit_edge
  call void @_ZN2cv3MatD1Ev(ptr noundef nonnull align 8 dereferenceable(96) %4) #14
  %indvars.iv.next37 = add nsw i64 %indvars.iv36, 1
  %72 = load i32, ptr %12, align 4
  %73 = sext i32 %72 to i64
  %.not.not = icmp slt i64 %indvars.iv.next37, %73
  br i1 %.not.not, label %35, label %._crit_edge34, !llvm.loop !6

74:                                               ; preds = %._crit_edge
  %75 = landingpad { ptr, i32 }
          cleanup
  br label %76

76:                                               ; preds = %74, %66, %64, %62
  %.pn26.pn = phi { ptr, i32 } [ %63, %62 ], [ %65, %64 ], [ %67, %66 ], [ %75, %74 ]
  call void @_ZN2cv3MatD1Ev(ptr noundef nonnull align 8 dereferenceable(96) %4) #14
  resume { ptr, i32 } %.pn26.pn

._crit_edge34:                                    ; preds = %71, %2
  ret void
}